target datalayout = "e-m:e-p270:32:32-p271:32:32-p272:64:64-i64:64-i128:128-f80:128-n8:16:32:64-S128"
target triple = "x86_64-pc-linux-gnu"

%struct.pdcp_nr_security_info_t = type { i32, i8, i8, i32, i32, i32, i32, i32 }

@pdcp_security_hash = internal global ptr null, align 8

; Function Attrs: null_pointer_is_valid sspstrong uwtable
define hidden void @set_pdcp_nr_security_algorithms_failed(i16 noundef zeroext %0) #0 {
  %2 = alloca i16, align 2
  %3 = alloca ptr, align 8
  store i16 %0, ptr %2, align 2
  call void @llvm.lifetime.start.p0(i64 8, ptr %3) #15
  %4 = load ptr, ptr @pdcp_security_hash, align 8
  %5 = load i16, ptr %2, align 2
  %6 = zext i16 %5 to i32
  %7 = zext i32 %6 to i64
  %8 = inttoptr i64 %7 to ptr
  %9 = call ptr @wmem_map_lookup(ptr noundef %4, ptr noundef %8)
  store ptr %9, ptr %3, align 8
  %10 = load ptr, ptr %3, align 8
  %11 = icmp ne ptr %10, null
  br i1 %11, label %12, label %28

12:                                               ; preds = %1
  %13 = load ptr, ptr %3, align 8
  %14 = getelementptr inbounds nuw %struct.pdcp_nr_security_info_t, ptr %13, i32 0, i32 5
  %15 = load i32, ptr %14, align 4
  %16 = load ptr, ptr %3, align 8
  %17 = getelementptr inbounds nuw %struct.pdcp_nr_security_info_t, ptr %16, i32 0, i32 0
  store i32 %15, ptr %17, align 4
  %18 = load ptr, ptr %3, align 8
  %19 = getelementptr inbounds nuw %struct.pdcp_nr_security_info_t, ptr %18, i32 0, i32 6
  %20 = load i32, ptr %19, align 4
  %21 = load ptr, ptr %3, align 8
  %22 = getelementptr inbounds nuw %struct.pdcp_nr_security_info_t, ptr %21, i32 0, i32 3
  store i32 %20, ptr %22, align 4
  %23 = load ptr, ptr %3, align 8
  %24 = getelementptr inbounds nuw %struct.pdcp_nr_security_info_t, ptr %23, i32 0, i32 7
  %25 = load i32, ptr %24, align 4
  %26 = load ptr, ptr %3, align 8
  %27 = getelementptr inbounds nuw %struct.pdcp_nr_security_info_t, ptr %26, i32 0, i32 4
  store i32 %25, ptr %27, align 4
  br label %28

28:                                               ; preds = %12, %1
  call void @llvm.lifetime.end.p0(i64 8, ptr %3) #15
  ret void
}