; Function Attrs: null_pointer_is_valid sspstrong uwtable
define hidden void @set_pdcp_nr_security_algorithms_failed(i16 noundef zeroext %0) local_unnamed_addr #0 {
  %2 = load ptr, ptr @pdcp_security_hash, align 8
  %3 = zext i16 %0 to i64
  %4 = inttoptr i64 %3 to ptr
  %5 = tail call ptr @wmem_map_lookup(ptr noundef %2, ptr noundef %4)
  %.not = icmp eq ptr %5, null
  br i1 %.not, label %15, label %6

6:                                                ; preds = %1
  %7 = getelementptr inbounds nuw i8, ptr %5, i64 16
  %8 = load i32, ptr %7, align 4
  store i32 %8, ptr %5, align 4
  %9 = getelementptr inbounds nuw i8, ptr %5, i64 20
  %10 = load i32, ptr %9, align 4
  %11 = getelementptr inbounds nuw i8, ptr %5, i64 8
  store i32 %10, ptr %11, align 4
  %12 = getelementptr inbounds nuw i8, ptr %5, i64 24
  %13 = load i32, ptr %12, align 4
  %14 = getelementptr inbounds nuw i8, ptr %5, i64 12
  store i32 %13, ptr %14, align 4
  br label %15

15:                                               ; preds = %6, %1
  ret void
}